target datalayout = "e-m:e-p270:32:32-p271:32:32-p272:64:64-i64:64-i128:128-f80:128-n8:16:32:64-S128"
target triple = "x86_64-pc-linux-gnu"

%struct.stmm_table = type { ptr, ptr, i32, i32, i32, i32, double, ptr, ptr }
%struct.stmm_table_entry = type { ptr, ptr, ptr }

; Function Attrs: nounwind uwtable
define i32 @stmm_foreach(ptr noundef %0, ptr noundef %1, ptr noundef %2) #0 {
  %4 = alloca i32, align 4
  %5 = alloca ptr, align 8
  %6 = alloca ptr, align 8
  %7 = alloca ptr, align 8
  %8 = alloca ptr, align 8
  %9 = alloca ptr, align 8
  %10 = alloca i32, align 4
  %11 = alloca i32, align 4
  store ptr %0, ptr %5, align 8
  store ptr %1, ptr %6, align 8
  store ptr %2, ptr %7, align 8
  store i32 0, ptr %11, align 4
  br label %12

12:                                               ; preds = %64, %3
  %13 = load i32, ptr %11, align 4
  %14 = load ptr, ptr %5, align 8
  %15 = getelementptr inbounds %struct.stmm_table, ptr %14, i32 0, i32 2
  %16 = load i32, ptr %15, align 8
  %17 = icmp slt i32 %13, %16
  br i1 %17, label %18, label %67

18:                                               ; preds = %12
  %19 = load ptr, ptr %5, align 8
  %20 = getelementptr inbounds %struct.stmm_table, ptr %19, i32 0, i32 7
  %21 = load ptr, ptr %20, align 8
  %22 = load i32, ptr %11, align 4
  %23 = sext i32 %22 to i64
  %24 = getelementptr inbounds ptr, ptr %21, i64 %23
  store ptr %24, ptr %9, align 8
  %25 = load ptr, ptr %9, align 8
  %26 = load ptr, ptr %25, align 8
  store ptr %26, ptr %8, align 8
  br label %27

27:                                               ; preds = %62, %18
  %28 = load ptr, ptr %8, align 8
  %29 = icmp ne ptr %28, null
  br i1 %29, label %30, label %63

30:                                               ; preds = %27
  %31 = load ptr, ptr %6, align 8
  %32 = load ptr, ptr %8, align 8
  %33 = getelementptr inbounds %struct.stmm_table_entry, ptr %32, i32 0, i32 0
  %34 = load ptr, ptr %33, align 8
  %35 = load ptr, ptr %8, align 8
  %36 = getelementptr inbounds %struct.stmm_table_entry, ptr %35, i32 0, i32 1
  %37 = load ptr, ptr %36, align 8
  %38 = load ptr, ptr %7, align 8
  %39 = call i32 %31(ptr noundef %34, ptr noundef %37, ptr noundef %38)
  store i32 %39, ptr %10, align 4
  %40 = load i32, ptr %10, align 4
  switch i32 %40, label %62 [
    i32 0, label %41
    i32 1, label %46
    i32 2, label %47
  ]

41:                                               ; preds = %30
  %42 = load ptr, ptr %8, align 8
  %43 = getelementptr inbounds %struct.stmm_table_entry, ptr %42, i32 0, i32 2
  store ptr %43, ptr %9, align 8
  %44 = load ptr, ptr %9, align 8
  %45 = load ptr, ptr %44, align 8
  store ptr %45, ptr %8, align 8
  br label %62

46:                                               ; preds = %30
  store i32 0, ptr %4, align 4
  br label %68

47:                                               ; preds = %30
  %48 = load ptr, ptr %8, align 8
  %49 = getelementptr inbounds %struct.stmm_table_entry, ptr %48, i32 0, i32 2
  %50 = load ptr, ptr %49, align 8
  %51 = load ptr, ptr %9, align 8
  store ptr %50, ptr %51, align 8
  %52 = load ptr, ptr %5, align 8
  %53 = getelementptr inbounds %struct.stmm_table, ptr %52, i32 0, i32 3
  %54 = load i32, ptr %53, align 4
  %55 = add nsw i32 %54, -1
  store i32 %55, ptr %53, align 4
  %56 = load ptr, ptr %5, align 8
  %57 = getelementptr inbounds %struct.stmm_table, ptr %56, i32 0, i32 8
  %58 = load ptr, ptr %57, align 8
  %59 = load ptr, ptr %8, align 8
  call void @Extra_MmFixedEntryRecycle(ptr noundef %58, ptr noundef %59)
  %60 = load ptr, ptr %9, align 8
  %61 = load ptr, ptr %60, align 8
  store ptr %61, ptr %8, align 8
  br label %62

62:                                               ; preds = %47, %41, %30
  br label %27, !llvm.loop !19

63:                                               ; preds = %27
  br label %64

64:                                               ; preds = %63
  %65 = load i32, ptr %11, align 4
  %66 = add nsw i32 %65, 1
  store i32 %66, ptr %11, align 4
  br label %12, !llvm.loop !20

67:                                               ; preds = %12
  store i32 1, ptr %4, align 4
  br label %68

68:                                               ; preds = %67, %46
  %69 = load i32, ptr %4, align 4
  ret i32 %69
}